; Function Attrs: nounwind uwtable
define noalias nonnull ptr @l_Lake_instInhabitedLeanExeConfig___boxed(ptr noundef %0) local_unnamed_addr #1 {
  %2 = load ptr, ptr @l_Lake_instInhabitedLeanExeConfig___closed__1, align 8, !tbaa !4
  %3 = load ptr, ptr @l_Lake_instInhabitedLeanExeConfig___closed__2, align 8, !tbaa !4
  %4 = load ptr, ptr @l_Lake_instInhabitedLeanExeConfig___lambda__1___closed__1, align 8, !tbaa !4
  %5 = load ptr, ptr @l_Lake_instInhabitedLeanExeConfig___closed__3, align 8, !tbaa !4
  tail call void @lean_inc_heartbeat() #7
  %6 = tail call noalias ptr @mi_malloc_small(i64 noundef 72) #7
  %7 = icmp eq ptr %6, null
  br i1 %7, label %8, label %l_Lake_instInhabitedLeanExeConfig.exit

8:                                                ; preds = %1
  tail call void @lean_internal_panic_out_of_memory() #8
  unreachable

l_Lake_instInhabitedLeanExeConfig.exit:           ; preds = %1
  %9 = getelementptr inbounds nuw i8, ptr %6, i64 4
  %10 = getelementptr inbounds nuw i8, ptr %6, i64 64
  store i64 0, ptr %10, align 8, !tbaa !8
  store i32 1, ptr %6, align 4, !tbaa !10
  store i32 458824, ptr %9, align 4
  %11 = getelementptr inbounds nuw i8, ptr %6, i64 8
  store ptr %2, ptr %11, align 8, !tbaa !4
  %12 = getelementptr inbounds nuw i8, ptr %6, i64 16
  store ptr %3, ptr %12, align 8, !tbaa !4
  %13 = getelementptr inbounds nuw i8, ptr %6, i64 24
  store ptr inttoptr (i64 1 to ptr), ptr %13, align 8, !tbaa !4
  %14 = getelementptr inbounds nuw i8, ptr %6, i64 32
  store ptr %3, ptr %14, align 8, !tbaa !4
  %15 = getelementptr inbounds nuw i8, ptr %6, i64 40
  store ptr %4, ptr %15, align 8, !tbaa !4
  %16 = getelementptr inbounds nuw i8, ptr %6, i64 48
  store ptr %4, ptr %16, align 8, !tbaa !4
  %17 = getelementptr inbounds nuw i8, ptr %6, i64 56
  store ptr %5, ptr %17, align 8, !tbaa !4
  %18 = ptrtoint ptr %0 to i64
  %19 = and i64 %18, 1
  %.not = icmp eq i64 %19, 0
  br i1 %.not, label %20, label %lean_dec.exit

20:                                               ; preds = %l_Lake_instInhabitedLeanExeConfig.exit
  %21 = load i32, ptr %0, align 4, !tbaa !10
  %22 = icmp sgt i32 %21, 1
  br i1 %22, label %23, label %25, !prof !13

23:                                               ; preds = %20
  %24 = add nsw i32 %21, -1
  store i32 %24, ptr %0, align 4, !tbaa !10
  br label %lean_dec.exit

25:                                               ; preds = %20
  %.not.i = icmp eq i32 %21, 0
  br i1 %.not.i, label %lean_dec.exit, label %26

26:                                               ; preds = %25
  tail call void @lean_dec_ref_cold(ptr noundef nonnull %0) #7
  br label %lean_dec.exit

lean_dec.exit:                                    ; preds = %26, %25, %23, %l_Lake_instInhabitedLeanExeConfig.exit
  ret ptr %6
}